; Function Attrs: mustprogress uwtable
define void @_ZN6duckdb22ByteStreamSplitDecoder4SkipEPhm(ptr noundef nonnull align 8 dereferenceable(24) %0, ptr noundef readonly captures(address_is_null) %1, i64 noundef %2) local_unnamed_addr #4 align 2 personality ptr @__gxx_personality_v0 {
  %4 = load ptr, ptr %0, align 8, !tbaa !13
  %.not.i = icmp eq ptr %1, null
  br i1 %.not.i, label %_ZNK6duckdb12ColumnReader13GetValidCountEPhmm.exit, label %.preheader.i

.preheader.i:                                     ; preds = %3
  %.not = icmp eq i64 %2, 0
  br i1 %.not, label %_ZNK6duckdb12ColumnReader13GetValidCountEPhmm.exit, label %.lr.ph.i

.lr.ph.i:                                         ; preds = %.preheader.i
  %5 = getelementptr inbounds nuw i8, ptr %4, i64 8
  %6 = load ptr, ptr %5, align 8, !tbaa !43
  %7 = getelementptr inbounds nuw i8, ptr %6, i64 64
  %8 = load i64, ptr %7, align 8, !tbaa !100
  br label %9

9:                                                ; preds = %9, %.lr.ph.i
  %.016.i = phi i64 [ 0, %.lr.ph.i ], [ %16, %9 ]
  %.01215.i = phi i64 [ 0, %.lr.ph.i ], [ %15, %9 ]
  %10 = getelementptr inbounds nuw i8, ptr %1, i64 %.016.i
  %11 = load i8, ptr %10, align 1, !tbaa !118
  %12 = zext i8 %11 to i64
  %13 = icmp eq i64 %8, %12
  %14 = zext i1 %13 to i64
  %15 = add i64 %.01215.i, %14
  %16 = add nuw i64 %.016.i, 1
  %exitcond.not.i = icmp eq i64 %16, %2
  br i1 %exitcond.not.i, label %_ZNK6duckdb12ColumnReader13GetValidCountEPhmm.exit, label %9, !llvm.loop !119

_ZNK6duckdb12ColumnReader13GetValidCountEPhmm.exit: ; preds = %9, %3, %.preheader.i
  %.013.i = phi i64 [ %2, %3 ], [ 0, %.preheader.i ], [ %15, %9 ]
  %17 = getelementptr inbounds nuw i8, ptr %4, i64 8
  %18 = load ptr, ptr %17, align 8, !tbaa !43
  %19 = getelementptr inbounds nuw i8, ptr %18, i64 112
  %20 = load i32, ptr %19, align 8, !tbaa !214
  switch i32 %20, label %29 [
    i32 4, label %21
    i32 5, label %25
  ]

21:                                               ; preds = %_ZNK6duckdb12ColumnReader13GetValidCountEPhmm.exit
  %22 = getelementptr inbounds nuw i8, ptr %0, i64 16
  %23 = tail call noundef ptr @_ZNK6duckdb10unique_ptrINS_10BssDecoderESt14default_deleteIS1_ELb1EEptEv(ptr noundef nonnull align 8 dereferenceable(8) %22)
  %24 = trunc i64 %.013.i to i32
  tail call void @_ZN6duckdb10BssDecoder4SkipIfEEvj(ptr noundef nonnull align 8 dereferenceable(20) %23, i32 noundef %24)
  br label %34

25:                                               ; preds = %_ZNK6duckdb12ColumnReader13GetValidCountEPhmm.exit
  %26 = getelementptr inbounds nuw i8, ptr %0, i64 16
  %27 = tail call noundef ptr @_ZNK6duckdb10unique_ptrINS_10BssDecoderESt14default_deleteIS1_ELb1EEptEv(ptr noundef nonnull align 8 dereferenceable(8) %26)
  %28 = trunc i64 %.013.i to i32
  tail call void @_ZN6duckdb10BssDecoder4SkipIdEEvj(ptr noundef nonnull align 8 dereferenceable(20) %27, i32 noundef %28)
  br label %34

29:                                               ; preds = %_ZNK6duckdb12ColumnReader13GetValidCountEPhmm.exit
  %30 = tail call ptr @__cxa_allocate_exception(i64 16) #24
  invoke void @_ZNSt13runtime_errorC1EPKc(ptr noundef nonnull align 8 dereferenceable(16) %30, ptr noundef nonnull @.str)
          to label %31 unwind label %32

31:                                               ; preds = %29
  tail call void @__cxa_throw(ptr nonnull %30, ptr nonnull @_ZTISt13runtime_error, ptr nonnull @_ZNSt13runtime_errorD1Ev) #25
  unreachable

32:                                               ; preds = %29
  %33 = landingpad { ptr, i32 }
          cleanup
  tail call void @__cxa_free_exception(ptr nonnull %30) #24
  resume { ptr, i32 } %33

34:                                               ; preds = %25, %21
  ret void
}